; ModuleID = 'source-C-CXX/2/1503.c'
source_filename = "source-C-CXX/2/1503.c"
target datalayout = "e-m:e-p270:32:32-p271:32:32-p272:64:64-i64:64-f80:128-n8:16:32:64-S128"
target triple = "x86_64-pc-linux-gnu"

@.str = private unnamed_addr constant [6 x i8] c"%d %d\00", align 1
@.str.1 = private unnamed_addr constant [4 x i8] c"%d \00", align 1
@.str.2 = private unnamed_addr constant [3 x i8] c"no\00", align 1
@.str.3 = private unnamed_addr constant [4 x i8] c"yes\00", align 1

; Function Attrs: nofree nounwind sspstrong uwtable
define dso_local i32 @main() local_unnamed_addr #0 {
  %1 = alloca i32, align 4
  %2 = alloca i32, align 4
  %3 = alloca [10000 x i32], align 16
  %4 = bitcast i32* %1 to i8*
  call void @llvm.lifetime.start.p0i8(i64 4, i8* nonnull %4) #3
  %5 = bitcast i32* %2 to i8*
  call void @llvm.lifetime.start.p0i8(i64 4, i8* nonnull %5) #3
  %6 = bitcast [10000 x i32]* %3 to i8*
  call void @llvm.lifetime.start.p0i8(i64 40000, i8* nonnull %6) #3
  %7 = call i32 (i8*, ...) @__isoc99_scanf(i8* getelementptr inbounds ([6 x i8], [6 x i8]* @.str, i64 0, i64 0), i32* nonnull %1, i32* nonnull %2)
  %8 = load i32, i32* %1, align 4, !tbaa !5
  %9 = icmp sgt i32 %8, 0
  br i1 %9, label %24, label %10

10:                                               ; preds = %24, %0
  %11 = phi i32 [ %8, %0 ], [ %29, %24 ]
  %12 = load i32, i32* %2, align 4
  %13 = add nsw i32 %11, -1
  %14 = mul nsw i32 %11, %11
  %15 = mul nsw i32 %14, %11
  %16 = mul nsw i32 %13, %11
  %17 = sdiv i32 %16, 2
  %18 = icmp sgt i32 %11, 0
  br i1 %18, label %19, label %61

19:                                               ; preds = %10
  %20 = zext i32 %11 to i64
  %21 = add nsw i64 %20, -1
  %22 = zext i32 %13 to i64
  %23 = zext i32 %11 to i64
  br label %34

24:                                               ; preds = %0, %24
  %25 = phi i64 [ %28, %24 ], [ 0, %0 ]
  %26 = getelementptr inbounds [10000 x i32], [10000 x i32]* %3, i64 0, i64 %25
  %27 = call i32 (i8*, ...) @__isoc99_scanf(i8* getelementptr inbounds ([4 x i8], [4 x i8]* @.str.1, i64 0, i64 0), i32* nonnull %26)
  %28 = add nuw nsw i64 %25, 1
  %29 = load i32, i32* %1, align 4, !tbaa !5
  %30 = sext i32 %29 to i64
  %31 = icmp slt i64 %28, %30
  br i1 %31, label %24, label %10, !llvm.loop !9

32:                                               ; preds = %55
  %33 = icmp eq i64 %57, %23
  br i1 %33, label %61, label %34, !llvm.loop !11

34:                                               ; preds = %19, %32
  %35 = phi i64 [ 0, %19 ], [ %57, %32 ]
  %36 = phi i32 [ 0, %19 ], [ %53, %32 ]
  %37 = icmp ult i64 %35, %22
  br i1 %37, label %38, label %52

38:                                               ; preds = %34
  %39 = getelementptr inbounds [10000 x i32], [10000 x i32]* %3, i64 0, i64 %35
  %40 = load i32, i32* %39, align 4, !tbaa !5
  br label %41

41:                                               ; preds = %38, %48
  %42 = phi i64 [ %21, %38 ], [ %50, %48 ]
  %43 = phi i32 [ %36, %38 ], [ %49, %48 ]
  %44 = getelementptr inbounds [10000 x i32], [10000 x i32]* %3, i64 0, i64 %42
  %45 = load i32, i32* %44, align 4, !tbaa !5
  %46 = add nsw i32 %45, %40
  %47 = icmp eq i32 %46, %12
  br i1 %47, label %52, label %48

48:                                               ; preds = %41
  %49 = add nsw i32 %43, 1
  %50 = add nsw i64 %42, -1
  %51 = icmp sgt i64 %50, %35
  br i1 %51, label %41, label %52, !llvm.loop !12

52:                                               ; preds = %48, %41, %34
  %53 = phi i32 [ %36, %34 ], [ %15, %41 ], [ %49, %48 ]
  %54 = icmp eq i32 %53, %17
  br i1 %54, label %58, label %55

55:                                               ; preds = %52
  %56 = icmp eq i32 %53, %15
  %57 = add nuw nsw i64 %35, 1
  br i1 %56, label %58, label %32

58:                                               ; preds = %55, %52
  %59 = phi i8* [ getelementptr inbounds ([3 x i8], [3 x i8]* @.str.2, i64 0, i64 0), %52 ], [ getelementptr inbounds ([4 x i8], [4 x i8]* @.str.3, i64 0, i64 0), %55 ]
  %60 = call i32 (i8*, ...) @printf(i8* nonnull dereferenceable(1) %59)
  br label %61

61:                                               ; preds = %32, %58, %10
  call void @llvm.lifetime.end.p0i8(i64 40000, i8* nonnull %6) #3
  call void @llvm.lifetime.end.p0i8(i64 4, i8* nonnull %5) #3
  call void @llvm.lifetime.end.p0i8(i64 4, i8* nonnull %4) #3
  ret i32 0
}

; Function Attrs: argmemonly mustprogress nofree nosync nounwind willreturn
declare void @llvm.lifetime.start.p0i8(i64 immarg, i8* nocapture) #1

; Function Attrs: nofree nounwind
declare noundef i32 @__isoc99_scanf(i8* nocapture noundef readonly, ...) local_unnamed_addr #2

; Function Attrs: nofree nounwind
declare noundef i32 @printf(i8* nocapture noundef readonly, ...) local_unnamed_addr #2

; Function Attrs: argmemonly mustprogress nofree nosync nounwind willreturn
declare void @llvm.lifetime.end.p0i8(i64 immarg, i8* nocapture) #1


!llvm.module.flags = !{!0, !1, !2, !3}
!llvm.ident = !{!4}

!0 = !{i32 1, !"wchar_size", i32 4}
!1 = !{i32 7, !"PIC Level", i32 2}
!2 = !{i32 7, !"PIE Level", i32 2}
!3 = !{i32 7, !"uwtable", i32 1}
!4 = !{!"clang version 13.0.0"}
!5 = !{!6, !6, i64 0}
!6 = !{!"int", !7, i64 0}
!7 = !{!"omnipotent char", !8, i64 0}
!8 = !{!"Simple C/C++ TBAA"}
!9 = distinct !{!9, !10}
!10 = !{!"llvm.loop.mustprogress"}
!11 = distinct !{!11, !10}
!12 = distinct !{!12, !10}
